target datalayout = "e-m:e-p270:32:32-p271:32:32-p272:64:64-i64:64-i128:128-f80:128-n8:16:32:64-S128"
target triple = "x86_64-pc-linux-gnu"

%struct.nstime_t = type { i64, i32 }
%struct._diameter_req_ans_pair_t = type { i32, i32, i32, i32, ptr, i32, i32, %struct.nstime_t, %struct.nstime_t, i8 }
%struct._srt_data_t = type { ptr, ptr }
%struct._GArray = type { ptr, i32 }

@diameterstat_cmd_str_hash = internal global ptr null, align 8

; Function Attrs: null_pointer_is_valid sspstrong uwtable
define internal i32 @diameterstat_packet(ptr noundef %0, ptr noundef %1, ptr noundef %2, ptr noundef %3, i32 noundef %4) #0 {
  %6 = alloca i32, align 4
  %7 = alloca ptr, align 8
  %8 = alloca ptr, align 8
  %9 = alloca ptr, align 8
  %10 = alloca ptr, align 8
  %11 = alloca i32, align 4
  %12 = alloca i32, align 4
  %13 = alloca ptr, align 8
  %14 = alloca ptr, align 8
  %15 = alloca ptr, align 8
  %16 = alloca ptr, align 8
  %17 = alloca i32, align 4
  store ptr %0, ptr %7, align 8
  store ptr %1, ptr %8, align 8
  store ptr %2, ptr %9, align 8
  store ptr %3, ptr %10, align 8
  store i32 %4, ptr %11, align 4
  call void @llvm.lifetime.start.p0(i64 4, ptr %12) #14
  store i32 0, ptr %12, align 4
  call void @llvm.lifetime.start.p0(i64 8, ptr %13) #14
  call void @llvm.lifetime.start.p0(i64 8, ptr %14) #14
  %18 = load ptr, ptr %7, align 8
  store ptr %18, ptr %14, align 8
  call void @llvm.lifetime.start.p0(i64 8, ptr %15) #14
  %19 = load ptr, ptr %10, align 8
  store ptr %19, ptr %15, align 8
  call void @llvm.lifetime.start.p0(i64 8, ptr %16) #14
  store ptr null, ptr %16, align 8
  %20 = load ptr, ptr %15, align 8
  %21 = icmp ne ptr %20, null
  br i1 %21, label %22, label %32

22:                                               ; preds = %5
  %23 = load ptr, ptr %15, align 8
  %24 = getelementptr inbounds nuw %struct._diameter_req_ans_pair_t, ptr %23, i32 0, i32 9
  %25 = load i8, ptr %24, align 8, !range !6, !noundef !7
  %26 = trunc i8 %25 to i1
  br i1 %26, label %32, label %27

27:                                               ; preds = %22
  %28 = load ptr, ptr %15, align 8
  %29 = getelementptr inbounds nuw %struct._diameter_req_ans_pair_t, ptr %28, i32 0, i32 5
  %30 = load i32, ptr %29, align 8
  %31 = icmp ne i32 %30, 0
  br i1 %31, label %33, label %32

32:                                               ; preds = %27, %22, %5
  store i32 0, ptr %6, align 4
  store i32 1, ptr %17, align 4
  br label %75

33:                                               ; preds = %27
  %34 = load ptr, ptr %14, align 8
  %35 = getelementptr inbounds nuw %struct._srt_data_t, ptr %34, i32 0, i32 0
  %36 = load ptr, ptr %35, align 8
  %37 = getelementptr inbounds nuw %struct._GArray, ptr %36, i32 0, i32 0
  %38 = load ptr, ptr %37, align 8
  %39 = load i32, ptr %12, align 4
  %40 = zext i32 %39 to i64
  %41 = getelementptr ptr, ptr %38, i64 %40
  %42 = load ptr, ptr %41, align 8
  store ptr %42, ptr %13, align 8
  %43 = load ptr, ptr @diameterstat_cmd_str_hash, align 8
  %44 = load ptr, ptr %15, align 8
  %45 = getelementptr inbounds nuw %struct._diameter_req_ans_pair_t, ptr %44, i32 0, i32 4
  %46 = load ptr, ptr %45, align 8
  %47 = call ptr @g_hash_table_lookup(ptr noundef %43, ptr noundef %46)
  store ptr %47, ptr %16, align 8
  %48 = load ptr, ptr %16, align 8
  %49 = icmp eq ptr %48, null
  br i1 %49, label %50, label %68

50:                                               ; preds = %33
  %51 = call ptr @wmem_epan_scope()
  %52 = call noalias ptr @wmem_alloc(ptr noundef %51, i64 noundef 4) #15
  store ptr %52, ptr %16, align 8
  %53 = load ptr, ptr @diameterstat_cmd_str_hash, align 8
  %54 = call i32 @g_hash_table_size(ptr noundef %53)
  %55 = load ptr, ptr %16, align 8
  store i32 %54, ptr %55, align 4
  %56 = load ptr, ptr @diameterstat_cmd_str_hash, align 8
  %57 = load ptr, ptr %15, align 8
  %58 = getelementptr inbounds nuw %struct._diameter_req_ans_pair_t, ptr %57, i32 0, i32 4
  %59 = load ptr, ptr %58, align 8
  %60 = load ptr, ptr %16, align 8
  %61 = call i32 @g_hash_table_insert(ptr noundef %56, ptr noundef %59, ptr noundef %60)
  %62 = load ptr, ptr %13, align 8
  %63 = load ptr, ptr %16, align 8
  %64 = load i32, ptr %63, align 4
  %65 = load ptr, ptr %15, align 8
  %66 = getelementptr inbounds nuw %struct._diameter_req_ans_pair_t, ptr %65, i32 0, i32 4
  %67 = load ptr, ptr %66, align 8
  call void @init_srt_table_row(ptr noundef %62, i32 noundef %64, ptr noundef %67)
  br label %68

68:                                               ; preds = %50, %33
  %69 = load ptr, ptr %13, align 8
  %70 = load ptr, ptr %16, align 8
  %71 = load i32, ptr %70, align 4
  %72 = load ptr, ptr %15, align 8
  %73 = getelementptr inbounds nuw %struct._diameter_req_ans_pair_t, ptr %72, i32 0, i32 7
  %74 = load ptr, ptr %8, align 8
  call void @add_srt_table_data(ptr noundef %69, i32 noundef %71, ptr noundef %73, ptr noundef %74)
  store i32 1, ptr %6, align 4
  store i32 1, ptr %17, align 4
  br label %75

75:                                               ; preds = %68, %32
  call void @llvm.lifetime.end.p0(i64 8, ptr %16) #14
  call void @llvm.lifetime.end.p0(i64 8, ptr %15) #14
  call void @llvm.lifetime.end.p0(i64 8, ptr %14) #14
  call void @llvm.lifetime.end.p0(i64 8, ptr %13) #14
  call void @llvm.lifetime.end.p0(i64 4, ptr %12) #14
  %76 = load i32, ptr %6, align 4
  ret i32 %76
}