; Function Attrs: null_pointer_is_valid sspstrong uwtable
define internal range(i32 0, 2) i32 @diameterstat_packet(ptr noundef readonly captures(none) %0, ptr noundef %1, ptr readnone captures(none) %2, ptr noundef %3, i32 %4) #0 {
  %.not = icmp eq ptr %3, null
  br i1 %.not, label %35, label %6

6:                                                ; preds = %5
  %7 = getelementptr inbounds nuw i8, ptr %3, i64 64
  %8 = load i8, ptr %7, align 8, !range !6, !noundef !7
  %9 = trunc nuw i8 %8 to i1
  br i1 %9, label %35, label %10

10:                                               ; preds = %6
  %11 = getelementptr inbounds nuw i8, ptr %3, i64 24
  %12 = load i32, ptr %11, align 8
  %.not22 = icmp eq i32 %12, 0
  br i1 %.not22, label %35, label %13

13:                                               ; preds = %10
  %14 = load ptr, ptr %0, align 8
  %15 = load ptr, ptr %14, align 8
  %16 = load ptr, ptr %15, align 8
  %17 = load ptr, ptr @diameterstat_cmd_str_hash, align 8
  %18 = getelementptr inbounds nuw i8, ptr %3, i64 16
  %19 = load ptr, ptr %18, align 8
  %20 = tail call ptr @g_hash_table_lookup(ptr noundef %17, ptr noundef %19)
  %21 = icmp eq ptr %20, null
  br i1 %21, label %22, label %32

22:                                               ; preds = %13
  %23 = tail call ptr @wmem_epan_scope()
  %24 = tail call noalias dereferenceable_or_null(4) ptr @wmem_alloc(ptr noundef %23, i64 noundef 4) #15
  %25 = load ptr, ptr @diameterstat_cmd_str_hash, align 8
  %26 = tail call i32 @g_hash_table_size(ptr noundef %25)
  store i32 %26, ptr %24, align 4
  %27 = load ptr, ptr @diameterstat_cmd_str_hash, align 8
  %28 = load ptr, ptr %18, align 8
  %29 = tail call i32 @g_hash_table_insert(ptr noundef %27, ptr noundef %28, ptr noundef %24)
  %30 = load i32, ptr %24, align 4
  %31 = load ptr, ptr %18, align 8
  tail call void @init_srt_table_row(ptr noundef %16, i32 noundef %30, ptr noundef %31)
  br label %32

32:                                               ; preds = %22, %13
  %.0 = phi ptr [ %24, %22 ], [ %20, %13 ]
  %33 = load i32, ptr %.0, align 4
  %34 = getelementptr inbounds nuw i8, ptr %3, i64 32
  tail call void @add_srt_table_data(ptr noundef %16, i32 noundef %33, ptr noundef nonnull %34, ptr noundef %1)
  br label %35

35:                                               ; preds = %5, %6, %10, %32
  %.019 = phi i32 [ 1, %32 ], [ 0, %10 ], [ 0, %6 ], [ 0, %5 ]
  ret i32 %.019
}